----------------
IN: 
Priv: 3; Virt: 0
0x0000000000001000:  0000              illegal                 

----------------
IN: 
Priv: 3; Virt: 0
0x0000000000001000:  0000              illegal                 

----------------
IN: 
Priv: 3; Virt: 0
0x0000000000001000:  0000              illegal                 

----------------
IN: 
Priv: 3; Virt: 0
0x0000000000001000:  0000              illegal                 

----------------
IN: 
Priv: 3; Virt: 0
0x0000000000001000:  0000              illegal                 

----------------
IN: 
Priv: 3; Virt: 0
0x0000000000000000:  00000297          auipc                   t0,0                    # 0x0
0x0000000000000004:  02828613          addi                    a2,t0,40
0x0000000000000008:  f1402573          csrrs                   a0,mhartid,zero

----------------
IN: 
Priv: 3; Virt: 0
0x0000000000000000:  00000297          auipc                   t0,0                    # 0x0
0x0000000000000004:  02828613          addi                    a2,t0,40
0x0000000000000008:  f1402573          csrrs                   a0,mhartid,zero

----------------
IN: 
Priv: 3; Virt: 0
0x0000000000000000:  00000297          auipc                   t0,0                    # 0x0
0x0000000000000004:  02828613          addi                    a2,t0,40
0x0000000000000008:  f1402573          csrrs                   a0,mhartid,zero

----------------
IN: 
Priv: 3; Virt: 0
0x0000000000001000:  0000              illegal                 

----------------
IN: 
Priv: 3; Virt: 0
0x0000000000000000:  00000297          auipc                   t0,0                    # 0x0
0x0000000000000004:  02828613          addi                    a2,t0,40
0x0000000000000008:  f1402573          csrrs                   a0,mhartid,zero

----------------
IN: 
Priv: 3; Virt: 0
0x000000000000000c:  0202b583          ld                      a1,32(t0)
0x0000000000000010:  0182b283          ld                      t0,24(t0)
0x0000000000000014:  00028067          jr                      t0

----------------
IN: 
Priv: 3; Virt: 0
0x0000000020000000:  20200513          addi                    a0,zero,514
0x0000000020000004:  0552              slli                    a0,a0,20
0x0000000020000006:  6585              lui                     a1,4096
0x0000000020000008:  8005859b          addiw                   a1,a1,-2048
0x000000002000000c:  05d2              slli                    a1,a1,20
0x000000002000000e:  6605              lui                     a2,4096
0x0000000020000010:  8026061b          addiw                   a2,a2,-2046
0x0000000020000014:  0652              slli                    a2,a2,20
0x0000000020000016:  00c5fa63          bleu                    a2,a1,20                # 0x2000002a

----------------
IN: 
Priv: 3; Virt: 0
0x0000000020000000:  20200513          addi                    a0,zero,514
0x0000000020000004:  0552              slli                    a0,a0,20
0x0000000020000006:  6585              lui                     a1,4096
0x0000000020000008:  8005859b          addiw                   a1,a1,-2048
0x000000002000000c:  05d2              slli                    a1,a1,20
0x000000002000000e:  6605              lui                     a2,4096
0x0000000020000010:  8026061b          addiw                   a2,a2,-2046
0x0000000020000014:  0652              slli                    a2,a2,20
0x0000000020000016:  00c5fa63          bleu                    a2,a1,20                # 0x2000002a

----------------
IN: 
Priv: 3; Virt: 0
0x0000000000001000:  0000              illegal                 

----------------
IN: 
Priv: 3; Virt: 0
0x000000000000000c:  0202b583          ld                      a1,32(t0)
0x0000000000000010:  0182b283          ld                      t0,24(t0)
0x0000000000000014:  00028067          jr                      t0

----------------
IN: 
Priv: 3; Virt: 0
0x000000000000000c:  0202b583          ld                      a1,32(t0)
0x0000000000000010:  0182b283          ld                      t0,24(t0)
0x0000000000000014:  00028067          jr                      t0

----------------
IN: 
Priv: 3; Virt: 0
0x000000002000001a:  00052283          lw                      t0,0(a0)
0x000000002000001e:  0055a023          sw                      t0,0(a1)
0x0000000020000022:  0511              addi                    a0,a0,4
0x0000000020000024:  0591              addi                    a1,a1,4
0x0000000020000026:  fec5eae3          bgtu                    a2,a1,-12               # 0x2000001a

----------------
IN: 
Priv: 3; Virt: 0
0x000000002000001a:  00052283          lw                      t0,0(a0)
0x000000002000001e:  0055a023          sw                      t0,0(a1)
0x0000000020000022:  0511              addi                    a0,a0,4
0x0000000020000024:  0591              addi                    a1,a1,4
0x0000000020000026:  fec5eae3          bgtu                    a2,a1,-12               # 0x2000001a

----------------
IN: 
Priv: 3; Virt: 0
0x000000002000001a:  00052283          lw                      t0,0(a0)
0x000000002000001e:  0055a023          sw                      t0,0(a1)
0x0000000020000022:  0511              addi                    a0,a0,4
0x0000000020000024:  0591              addi                    a1,a1,4
0x0000000020000026:  fec5eae3          bgtu                    a2,a1,-12               # 0x2000001a

----------------
IN: 
Priv: 3; Virt: 0
0x000000002000001a:  00052283          lw                      t0,0(a0)
0x000000002000001e:  0055a023          sw                      t0,0(a1)
0x0000000020000022:  0511              addi                    a0,a0,4
0x0000000020000024:  0591              addi                    a1,a1,4
0x0000000020000026:  fec5eae3          bgtu                    a2,a1,-12               # 0x2000001a

----------------
IN: 
Priv: 3; Virt: 0
0x0000000000000000:  00000297          auipc                   t0,0                    # 0x0
0x0000000000000004:  02828613          addi                    a2,t0,40
0x0000000000000008:  f1402573          csrrs                   a0,mhartid,zero

----------------
IN: 
Priv: 3; Virt: 0
0x0000000000000000:  00000297          auipc                   t0,0                    # 0x0
0x0000000000000004:  02828613          addi                    a2,t0,40
0x0000000000000008:  f1402573          csrrs                   a0,mhartid,zero

----------------
IN: 
Priv: 3; Virt: 0
0x000000002000001a:  00052283          lw                      t0,0(a0)
0x000000002000001e:  0055a023          sw                      t0,0(a1)
0x0000000020000022:  0511              addi                    a0,a0,4
0x0000000020000024:  0591              addi                    a1,a1,4
0x0000000020000026:  fec5eae3          bgtu                    a2,a1,-12               # 0x2000001a

